target datalayout = "e-m:e-p270:32:32-p271:32:32-p272:64:64-i64:64-i128:128-f80:128-n8:16:32:64-S128"
target triple = "x86_64-pc-linux-gnu"

%struct.scriptRunCtx = type { ptr, ptr, ptr, i32, i32, i64, i32 }
%struct.client = type { i64, i64, ptr, i8, i8, i8, i8, i32, ptr, ptr, ptr, ptr, ptr, i64, i64, i32, ptr, i32, i32, ptr, i64, ptr, ptr, ptr, ptr, ptr, i32, i32, i64, ptr, i64, ptr, i64, i64, i64, i32, ptr, i64, i64, i32, i32, i32, i32, i64, i64, ptr, i64, i64, i64, i64, i64, i64, i64, i64, [41 x i8], i32, ptr, i32, i32, i64, %struct.multiState, %struct.blockingState, i64, ptr, ptr, ptr, ptr, ptr, ptr, ptr, ptr, ptr, ptr, ptr, ptr, ptr, ptr, i64, ptr, i64, i32, ptr, ptr, ptr, i64, %struct.listNode, i64, i64, i32, i64, ptr }
%struct.multiState = type { ptr, i32, i32, i32, i64, i32 }
%struct.blockingState = type { i32, i64, i32, ptr, i32, i32, i64, ptr, ptr, i64 }
%struct.listNode = type { ptr, ptr, ptr }

@.str.1 = private unnamed_addr constant [13 x i8] c"script_lua.c\00", align 1
@.str.40 = private unnamed_addr constant [12 x i8] c"__RUN_CTX__\00", align 1
@.str.98 = private unnamed_addr constant [5 x i8] c"rctx\00", align 1
@.str.120 = private unnamed_addr constant [48 x i8] c"Invalid command passed to redis.acl_check_cmd()\00", align 1

; Function Attrs: nounwind uwtable
define dso_local void @luaPushError(ptr noundef %0, ptr noundef %1) #0 {
  %3 = alloca ptr, align 8
  %4 = alloca ptr, align 8
  store ptr %0, ptr %3, align 8, !tbaa !5
  store ptr %1, ptr %4, align 8, !tbaa !10
  %5 = load ptr, ptr %3, align 8, !tbaa !5
  %6 = load ptr, ptr %4, align 8, !tbaa !10
  %7 = call ptr @sdsnew(ptr noundef %6)
  call void @luaPushErrorBuff(ptr noundef %5, ptr noundef %7)
  ret void
}

; Function Attrs: nounwind uwtable
define dso_local i32 @luaError(ptr noundef %0) #0 {
  %2 = alloca ptr, align 8
  store ptr %0, ptr %2, align 8, !tbaa !5
  %3 = load ptr, ptr %2, align 8, !tbaa !5
  %4 = call i32 @lua_error(ptr noundef %3)
  ret i32 %4
}

; Function Attrs: nounwind uwtable
define internal i32 @luaRedisAclCheckCmdPermissionsCommand(ptr noundef %0) #0 {
  %2 = alloca i32, align 4
  %3 = alloca ptr, align 8
  %4 = alloca ptr, align 8
  %5 = alloca i32, align 4
  %6 = alloca i32, align 4
  %7 = alloca i32, align 4
  %8 = alloca ptr, align 8
  %9 = alloca i32, align 4
  %10 = alloca ptr, align 8
  %11 = alloca i32, align 4
  store ptr %0, ptr %3, align 8, !tbaa !5
  call void @llvm.lifetime.start.p0(i64 8, ptr %4) #12
  %12 = load ptr, ptr %3, align 8, !tbaa !5
  %13 = call ptr @luaGetFromRegistry(ptr noundef %12, ptr noundef @.str.40)
  store ptr %13, ptr %4, align 8, !tbaa !64
  %14 = load ptr, ptr %4, align 8, !tbaa !64
  %15 = icmp ne ptr %14, null
  %16 = xor i1 %15, true
  %17 = xor i1 %16, true
  %18 = zext i1 %17 to i32
  %19 = sext i32 %18 to i64
  %20 = call i64 @llvm.expect.i64(i64 %19, i64 1)
  %21 = icmp ne i64 %20, 0
  br i1 %21, label %22, label %23

22:                                               ; preds = %1
  br label %25

23:                                               ; preds = %1
  call void @_serverAssert(ptr noundef @.str.98, ptr noundef @.str.1, i32 noundef 1115)
  call void @abort() #11
  unreachable

24:                                               ; No predecessors!
  br label %25

25:                                               ; preds = %24, %22
  call void @llvm.lifetime.start.p0(i64 4, ptr %5) #12
  store i32 0, ptr %5, align 4, !tbaa !16
  call void @llvm.lifetime.start.p0(i64 4, ptr %6) #12
  call void @llvm.lifetime.start.p0(i64 4, ptr %7) #12
  call void @llvm.lifetime.start.p0(i64 8, ptr %8) #12
  %26 = load ptr, ptr %3, align 8, !tbaa !5
  %27 = call ptr @luaArgsToRedisArgv(ptr noundef %26, ptr noundef %6, ptr noundef %7)
  store ptr %27, ptr %8, align 8, !tbaa !14
  %28 = load ptr, ptr %8, align 8, !tbaa !14
  %29 = icmp eq ptr %28, null
  br i1 %29, label %30, label %33

30:                                               ; preds = %25
  %31 = load ptr, ptr %3, align 8, !tbaa !5
  %32 = call i32 @luaError(ptr noundef %31)
  store i32 %32, ptr %2, align 4
  store i32 1, ptr %9, align 4
  br label %67

33:                                               ; preds = %25
  call void @llvm.lifetime.start.p0(i64 8, ptr %10) #12
  %34 = load ptr, ptr %8, align 8, !tbaa !14
  %35 = load i32, ptr %6, align 4, !tbaa !16
  %36 = call ptr @lookupCommand(ptr noundef %34, i32 noundef %35)
  store ptr %36, ptr %10, align 8, !tbaa !66
  %37 = icmp eq ptr %36, null
  br i1 %37, label %38, label %40

38:                                               ; preds = %33
  %39 = load ptr, ptr %3, align 8, !tbaa !5
  call void @luaPushError(ptr noundef %39, ptr noundef @.str.120)
  store i32 1, ptr %5, align 4, !tbaa !16
  br label %56

40:                                               ; preds = %33
  call void @llvm.lifetime.start.p0(i64 4, ptr %11) #12
  %41 = load ptr, ptr %4, align 8, !tbaa !64
  %42 = getelementptr inbounds nuw %struct.scriptRunCtx, ptr %41, i32 0, i32 2
  %43 = load ptr, ptr %42, align 8, !tbaa !68
  %44 = getelementptr inbounds nuw %struct.client, ptr %43, i32 0, i32 25
  %45 = load ptr, ptr %44, align 8, !tbaa !70
  %46 = load ptr, ptr %10, align 8, !tbaa !66
  %47 = load ptr, ptr %8, align 8, !tbaa !14
  %48 = load i32, ptr %6, align 4, !tbaa !16
  %49 = call i32 @ACLCheckAllUserCommandPerm(ptr noundef %45, ptr noundef %46, ptr noundef %47, i32 noundef %48, ptr noundef %11)
  %50 = icmp ne i32 %49, 0
  br i1 %50, label %51, label %53

51:                                               ; preds = %40
  %52 = load ptr, ptr %3, align 8, !tbaa !5
  call void @lua_pushboolean(ptr noundef %52, i32 noundef 0)
  br label %55

53:                                               ; preds = %40
  %54 = load ptr, ptr %3, align 8, !tbaa !5
  call void @lua_pushboolean(ptr noundef %54, i32 noundef 1)
  br label %55

55:                                               ; preds = %53, %51
  call void @llvm.lifetime.end.p0(i64 4, ptr %11) #12
  br label %56

56:                                               ; preds = %55, %38
  %57 = load ptr, ptr %8, align 8, !tbaa !14
  %58 = load i32, ptr %6, align 4, !tbaa !16
  %59 = load i32, ptr %7, align 4, !tbaa !16
  call void @freeLuaRedisArgv(ptr noundef %57, i32 noundef %58, i32 noundef %59)
  %60 = load i32, ptr %5, align 4, !tbaa !16
  %61 = icmp ne i32 %60, 0
  br i1 %61, label %62, label %65

62:                                               ; preds = %56
  %63 = load ptr, ptr %3, align 8, !tbaa !5
  %64 = call i32 @luaError(ptr noundef %63)
  store i32 %64, ptr %2, align 4
  store i32 1, ptr %9, align 4
  br label %66

65:                                               ; preds = %56
  store i32 1, ptr %2, align 4
  store i32 1, ptr %9, align 4
  br label %66

66:                                               ; preds = %65, %62
  call void @llvm.lifetime.end.p0(i64 8, ptr %10) #12
  br label %67

67:                                               ; preds = %66, %30
  call void @llvm.lifetime.end.p0(i64 8, ptr %8) #12
  call void @llvm.lifetime.end.p0(i64 4, ptr %7) #12
  call void @llvm.lifetime.end.p0(i64 4, ptr %6) #12
  call void @llvm.lifetime.end.p0(i64 4, ptr %5) #12
  call void @llvm.lifetime.end.p0(i64 8, ptr %4) #12
  %68 = load i32, ptr %2, align 4
  ret i32 %68
}