; Function Attrs: nounwind uwtable
define internal i32 @luaRedisAclCheckCmdPermissionsCommand(ptr noundef %0) #0 {
  %2 = alloca i32, align 4
  %3 = alloca i32, align 4
  %4 = alloca i32, align 4
  %5 = tail call ptr @luaGetFromRegistry(ptr noundef %0, ptr noundef nonnull @.str.40)
  %.not = icmp eq ptr %5, null
  br i1 %.not, label %6, label %7, !prof !6

6:                                                ; preds = %1
  tail call void @_serverAssert(ptr noundef nonnull @.str.98, ptr noundef nonnull @.str.1, i32 noundef 1115) #11
  tail call void @abort() #12
  unreachable

7:                                                ; preds = %1
  call void @llvm.lifetime.start.p0(i64 4, ptr nonnull %2) #11
  call void @llvm.lifetime.start.p0(i64 4, ptr nonnull %3) #11
  %8 = call fastcc ptr @luaArgsToRedisArgv(ptr noundef %0, ptr noundef nonnull %2, ptr noundef nonnull %3)
  %9 = icmp eq ptr %8, null
  br i1 %9, label %10, label %12

10:                                               ; preds = %7
  %11 = tail call i32 @lua_error(ptr noundef %0) #11
  br label %26

12:                                               ; preds = %7
  %13 = load i32, ptr %2, align 4, !tbaa !19
  %14 = tail call ptr @lookupCommand(ptr noundef nonnull %8, i32 noundef %13) #11
  %.not21 = icmp eq ptr %14, null
  br i1 %.not21, label %22, label %15

15:                                               ; preds = %12
  call void @llvm.lifetime.start.p0(i64 4, ptr nonnull %4) #11
  %16 = getelementptr inbounds nuw i8, ptr %5, i64 16
  %17 = load ptr, ptr %16, align 8, !tbaa !61
  %18 = getelementptr inbounds nuw i8, ptr %17, i64 160
  %19 = load ptr, ptr %18, align 8, !tbaa !63
  %20 = call i32 @ACLCheckAllUserCommandPerm(ptr noundef %19, ptr noundef nonnull %14, ptr noundef nonnull %8, i32 noundef %13, ptr noundef nonnull %4) #11
  %.not19 = icmp eq i32 %20, 0
  %. = zext i1 %.not19 to i32
  call void @lua_pushboolean(ptr noundef %0, i32 noundef %.) #11
  call void @llvm.lifetime.end.p0(i64 4, ptr nonnull %4) #11
  %21 = load i32, ptr %3, align 4, !tbaa !19
  call void @freeLuaRedisArgv(ptr noundef nonnull %8, i32 noundef %13, i32 noundef %21)
  br label %26

22:                                               ; preds = %12
  %23 = tail call ptr @sdsnew(ptr noundef nonnull @.str.120) #11
  tail call void @luaPushErrorBuff(ptr noundef %0, ptr noundef %23)
  %24 = load i32, ptr %3, align 4, !tbaa !19
  tail call void @freeLuaRedisArgv(ptr noundef nonnull %8, i32 noundef %13, i32 noundef %24)
  %25 = tail call i32 @lua_error(ptr noundef %0) #11
  br label %26

26:                                               ; preds = %15, %22, %10
  %.0 = phi i32 [ %11, %10 ], [ %25, %22 ], [ 1, %15 ]
  call void @llvm.lifetime.end.p0(i64 4, ptr nonnull %3) #11
  call void @llvm.lifetime.end.p0(i64 4, ptr nonnull %2) #11
  ret i32 %.0
}